(dp0
Vfeed
p1
(dp2
S'count'
p3
I8
sS'font_size'
p4
I2
sS'projects'
p5
(dp6
Vdjango-atompub
p7
(dp8
g3
I8
sS'home_page_url'
p9
S'http://code.google.com/p/django-atompub/'
p10
sS'repo_url'
p11
S'http://django-atompub.googlecode.com/svn/trunk/'
p12
ssssVcode
p13
(dp14
g3
I256
sg4
I5
sg5
(dp15
Vdjango-threadedcomments
p16
(dp17
g3
I3
sg9
S'http://code.google.com/p/django-threadedcomments/'
p18
sg11
S'http://django-threadedcomments.googlecode.com/svn/trunk/'
p19
ssVi18ndynamic
p20
(dp21
g3
I3
sg9
S'http://code.google.com/p/i18ndynamic/'
p22
sg11
S'http://i18ndynamic.googlecode.com/svn/trunk/'
p23
ssVdjango-queue-service
p24
(dp25
g3
I12
sg9
S'http://code.google.com/p/django-queue-service/'
p26
sg11
S'http://django-queue-service.googlecode.com/svn/trunk/'
p27
ssVdjango-robots
p28
(dp29
g3
I2
sg9
S'http://code.google.com/p/django-robots/'
p30
sg11
S'http://django-robots.googlecode.com/svn/trunk/'
p31
ssVdjango-rosetta
p32
(dp33
g3
I10
sg9
S'http://code.google.com/p/django-rosetta/'
p34
sg11
S'http://django-rosetta.googlecode.com/svn/trunk/'
p35
ssVdjango-mailer
p36
(dp37
g3
I4
sg9
S'http://code.google.com/p/django-mailer/'
p38
sg11
S'http://django-mailer.googlecode.com/svn/trunk/'
p39
ssVtypogrify
p40
(dp41
g3
I35
sg9
S'http://code.google.com/p/typogrify/'
p42
sg11
S'http://typogrify.googlecode.com/svn/trunk/'
p43
ssVdjango-discussion
p44
(dp45
g3
I3
sg9
S'http://code.google.com/p/django-discussion/'
p46
sg11
S'http://django-discussion.googlecode.com/svn/trunk/'
p47
ssVdjango-evserver
p48
(dp49
g3
I4
sg9
S'http://code.google.com/p/django-evserver/'
p50
sg11
S'http://django-evserver.googlecode.com/svn/trunk/'
p51
ssVdjango-template-utils
p52
(dp53
g3
I9
sg9
S'http://code.google.com/p/django-template-utils/'
p54
sg11
S'http://django-template-utils.googlecode.com/svn/trunk/'
p55
ssVflother
p56
(dp57
g3
I2
sg9
S'http://code.google.com/p/flother/'
p58
sg11
S'http://flother.googlecode.com/svn/trunk/'
p59
ssVdjangokit
p60
(dp61
g3
I2
sg9
S'http://code.google.com/p/djangokit/'
p62
sg11
S'http://djangokit.googlecode.com/svn/trunk/'
p63
ssVdjango-pressroom
p64
(dp65
g3
I15
sg9
S'http://code.google.com/p/django-pressroom/'
p66
sg11
S'http://django-pressroom.googlecode.com/svn/trunk/'
p67
ssVdiamanda
p68
(dp69
g3
I6
sg9
S'http://code.google.com/p/diamanda/'
p70
sg11
S'http://diamanda.googlecode.com/svn/trunk/'
p71
ssVdjango-sphinx
p72
(dp73
g3
I12
sg9
S'http://code.google.com/p/django-sphinx/'
p74
sg11
S'http://django-sphinx.googlecode.com/svn/trunk/'
p75
ssVdjango-voting
p76
(dp77
g3
I12
sg9
S'http://code.google.com/p/django-voting/'
p78
sg11
S'http://django-voting.googlecode.com/svn/trunk/'
p79
ssVdjango-pingback
p80
(dp81
g3
I3
sg9
S'http://code.google.com/p/django-pingback/'
p82
sg11
S'http://django-pingback.googlecode.com/svn/trunk/'
p83
ssVdjango-psn
p84
(dp85
g3
I12
sg9
S'http://code.google.com/p/django-psn/'
p86
sg11
S'http://django-psn.googlecode.com/svn/trunk/'
p87
ssVdjango-multilingual
p88
(dp89
g3
I3
sg9
S'http://code.google.com/p/django-multilingual/'
p90
sg11
S'http://django-multilingual.googlecode.com/svn/trunk/'
p91
ssVdjango-rest-interface
p92
(dp93
g3
I16
sg9
S'http://code.google.com/p/django-rest-interface/'
p94
sg11
S'http://django-rest-interface.googlecode.com/svn/trunk/'
p95
ssVdjango-registration
p96
(dp97
g3
I48
sg9
S'http://code.google.com/p/django-registration/'
p98
sg11
S'http://django-registration.googlecode.com/svn/trunk/'
p99
ssVdjango-comment-utils
p100
(dp101
g3
I10
sg9
S'http://code.google.com/p/django-comment-utils/'
p102
sg11
S'http://django-comment-utils.googlecode.com/svn/trunk/'
p103
ssVdjango-mptt
p104
(dp105
g3
I12
sg9
S'http://code.google.com/p/django-mptt/'
p106
sg11
S'http://django-mptt.googlecode.com/svn/trunk/'
p107
ssVcab
p108
(dp109
g3
I18
sg9
S'http://code.google.com/p/cab/'
p110
sg11
S'http://cab.googlecode.com/svn/trunk/'
p111
ssssVosx
p112
(dp113
g3
I20
sg4
I3
sg5
(dp114
g60
(dp115
g3
I20
sg9
g62
sg11
g63
ssssVtumblelog
p116
(dp117
g3
I15
sg4
I2
sg5
(dp118
Vjellyroll
p119
(dp120
g3
I15
sg9
S'http://code.google.com/p/jellyroll/'
p121
sg11
S'http://jellyroll.googlecode.com/svn/trunk/'
p122
ssssVphoto
p123
(dp124
g3
I62
sg4
I4
sg5
(dp125
Vdjango-photologue
p126
(dp127
g3
I57
sg9
S'http://code.google.com/p/django-photologue/'
p128
sg11
S'http://django-photologue.googlecode.com/svn/trunk/'
p129
ssVdjango-fleshin
p130
(dp131
g3
I5
sg9
S'http://code.google.com/p/django-fleshin/'
p132
sg11
S'http://django-fleshin.googlecode.com/svn/trunk/'
p133
ssssVgraphics
p134
(dp135
g3
I8
sg4
I2
sg5
(dp136
Vdjango-graphs
p137
(dp138
g3
I8
sg9
S'http://code.google.com/p/django-graphs/'
p139
sg11
S'http://django-graphs.googlecode.com/svn/trunk/'
p140
ssssVrest
p141
(dp142
g3
I104
sg4
I4
sg5
(dp143
g92
(dp144
g3
I104
sg9
g94
sg11
g95
ssssVmicroformats
p145
(dp146
g3
I4
sg4
I2
sg5
(dp147
Vdjango-microformats
p148
(dp149
g3
I4
sg9
S'http://code.google.com/p/django-microformats/'
p150
sg11
S'http://django-microformats.googlecode.com/svn/trunk/'
p151
ssssVwebdesign
p152
(dp153
g3
I36
sg4
I3
sg5
(dp154
g40
(dp155
g3
I36
sg9
g42
sg11
g43
ssssVgraphing
p156
(dp157
g3
I2
sg4
I1
sg5
(dp158
g137
(dp159
g3
I2
sg9
g139
sg11
g140
ssssVgraph
p160
(dp161
g3
I14
sg4
I2
sg5
(dp162
g137
(dp163
g3
I14
sg9
g139
sg11
g140
ssssVinternationalization
p164
(dp165
g3
I26
sg4
I3
sg5
(dp166
g32
(dp167
g3
I20
sg9
g34
sg11
g35
ssg20
(dp168
g3
I4
sg9
g22
sg11
g23
ssg88
(dp169
g3
I2
sg9
g90
sg11
g91
ssssVnetworks
p170
(dp171
g3
I11
sg4
I2
sg5
(dp172
g84
(dp173
g3
I11
sg9
g86
sg11
g87
ssssVxml
p174
(dp175
g3
I28
sg4
I3
sg5
(dp176
g92
(dp177
g3
I28
sg9
g94
sg11
g95
ssssVweb
p178
(dp179
g3
I232
sg4
I4
sg5
(dp180
Vdjango-openid
p181
(dp182
g3
I16
sg9
S'http://code.google.com/p/django-openid/'
p183
sg11
S'http://django-openid.googlecode.com/svn/trunk/'
p184
ssVdjango-friends
p185
(dp186
g3
I3
sg9
S'http://code.google.com/p/django-friends/'
p187
sg11
S'http://django-friends.googlecode.com/svn/trunk/'
p188
ssVdjango-tagging
p189
(dp190
g3
I31
sg9
S'http://code.google.com/p/django-tagging/'
p191
sg11
S'http://django-tagging.googlecode.com/svn/trunk/'
p192
ssg24
(dp193
g3
I8
sg9
g26
sg11
g27
ssVdjango-profiles
p194
(dp195
g3
I3
sg9
S'http://code.google.com/p/django-profiles/'
p196
sg11
S'http://django-profiles.googlecode.com/svn/trunk/'
p197
ssg40
(dp198
g3
I37
sg9
g42
sg11
g43
ssVtranquil
p199
(dp200
g3
I2
sg9
S'http://code.google.com/p/tranquil/'
p201
sg11
S'http://tranquil.googlecode.com/svn/trunk/'
p202
ssVdjango-mobileadmin
p203
(dp204
g3
I3
sg9
S'http://code.google.com/p/django-mobileadmin/'
p205
sg11
S'http://django-mobileadmin.googlecode.com/svn/trunk/'
p206
ssVdjango-page-cms
p207
(dp208
g3
I3
sg9
S'http://code.google.com/p/django-page-cms/'
p209
sg11
S'http://django-page-cms.googlecode.com/svn/trunk/'
p210
ssVdjango-signedcookies
p211
(dp212
g3
I9
sg9
S'http://code.google.com/p/django-signedcookies/'
p213
sg11
S'http://django-signedcookies.googlecode.com/svn/trunk/'
p214
ssg44
(dp215
g3
I4
sg9
g46
sg11
g47
ssVdeseb
p216
(dp217
g3
I4
sg9
S'http://code.google.com/p/deseb/'
p218
sg11
S'http://deseb.googlecode.com/svn/trunk/'
p219
ssg64
(dp220
g3
I4
sg9
g66
sg11
g67
ssVdjango-logging
p221
(dp222
g3
I5
sg9
S'http://code.google.com/p/django-logging/'
p223
sg11
S'http://django-logging.googlecode.com/svn/trunk/'
p224
ssVtransdb
p225
(dp226
g3
I3
sg9
S'http://code.google.com/p/transdb/'
p227
sg11
S'http://transdb.googlecode.com/svn/trunk/'
p228
ssVdjango-wikiapp
p229
(dp230
g3
I2
sg9
S'http://code.google.com/p/django-wikiapp/'
p231
sg11
S'http://django-wikiapp.googlecode.com/svn/trunk/'
p232
ssg76
(dp233
g3
I3
sg9
g78
sg11
g79
ssVsphene
p234
(dp235
g3
I10
sg9
S'http://sct.sphene.net/wiki/show/Start/'
p236
sg11
S'http://yourhell.com/svn/root/django/communitytools/trunk'
p237
ssVdjango-diario
p238
(dp239
g3
I6
sg9
S'http://code.google.com/p/django-diario/'
p240
sg11
S'http://django-diario.googlecode.com/svn/trunk/'
p241
ssg88
(dp242
g3
I10
sg9
g90
sg11
g91
ssg92
(dp243
g3
I14
sg9
g94
sg11
g95
ssg137
(dp244
g3
I3
sg9
g139
sg11
g140
ssg36
(dp245
g3
I9
sg9
g38
sg11
g39
ssg7
(dp246
g3
I9
sg9
g10
sg11
g12
ssVsatchmo
p247
(dp248
g3
I31
sg9
S'http://www.satchmoproject.com/'
p249
sg11
S'svn://satchmoproject.com/satchmo/trunk/'
p250
ssssVlayout
p251
(dp252
g3
I13
sg4
I2
sg5
(dp253
Vdjango-yui-layout-templates
p254
(dp255
g3
I13
sg9
S'http://code.google.com/p/django-yui-layout-templates/'
p256
sg11
S'http://django-yui-layout-templates.googlecode.com/svn/trunk/'
p257
ssssVcli
p258
(dp259
g3
I2
sg4
I1
sg5
(dp260
Vdjango-command-extensions
p261
(dp262
g3
I2
sg9
S'http://code.google.com/p/django-command-extensions/'
p263
sg11
S'http://django-command-extensions.googlecode.com/svn/trunk/'
p264
ssssVgenerator
p265
(dp266
g3
I12
sg4
I2
sg5
(dp267
Vsorl-thumbnail
p268
(dp269
g3
I12
sg9
S'http://code.google.com/p/sorl-thumbnail/'
p270
sg11
S'http://sorl-thumbnail.googlecode.com/svn/trunk/'
p271
ssssVwebapps
p272
(dp273
g3
I3
sg4
I1
sg5
(dp274
g68
(dp275
g3
I3
sg9
g70
sg11
g71
ssssVcache
p276
(dp277
g3
I23
sg4
I3
sg5
(dp278
Vdjango-orm-cache
p279
(dp280
g3
I23
sg9
S'http://code.google.com/p/django-orm-cache/'
p281
sg11
S'http://django-orm-cache.googlecode.com/svn/trunk/'
p282
ssssVatompub
p283
(dp284
g3
I15
sg4
I2
sg5
(dp285
g7
(dp286
g3
I15
sg9
g10
sg11
g12
ssssVblog
p287
(dp288
g3
I53
sg4
I3
sg5
(dp289
g119
(dp290
g3
I11
sg9
g121
sg11
g122
ssg56
(dp291
g3
I3
sg9
g58
sg11
g59
ssg100
(dp292
g3
I21
sg9
g102
sg11
g103
ssVdjango-contact-form
p293
(dp294
g3
I4
sg9
S'http://code.google.com/p/django-contact-form/'
p295
sg11
S'http://django-contact-form.googlecode.com/svn/trunk/'
p296
ssg238
(dp297
g3
I14
sg9
g240
sg11
g241
ssssVFramework
p298
(dp299
g3
I13
sg4
I2
sg5
(dp300
Vdjango-evolution
p301
(dp302
g3
I13
sg9
S'http://code.google.com/p/django-evolution/'
p303
sg11
S'http://django-evolution.googlecode.com/svn/trunk/'
p304
ssssVopensource
p305
(dp306
g3
I203
sg4
I4
sg5
(dp307
g181
(dp308
g3
I17
sg9
g183
sg11
g184
ssg76
(dp309
g3
I7
sg9
g78
sg11
g79
ssg96
(dp310
g3
I33
sg9
g98
sg11
g99
ssg24
(dp311
g3
I8
sg9
g26
sg11
g27
ssg247
(dp312
g3
I124
sg9
g249
sg11
g250
ssg119
(dp313
g3
I3
sg9
g121
sg11
g122
ssg108
(dp314
g3
I11
sg9
g110
sg11
g111
ssssVmail
p315
(dp316
g3
I10
sg4
I2
sg5
(dp317
g36
(dp318
g3
I10
sg9
g38
sg11
g39
ssssVserver
p319
(dp320
g3
I15
sg4
I2
sg5
(dp321
g48
(dp322
g3
I15
sg9
g50
sg11
g51
ssssVapp
p323
(dp324
g3
I23
sg4
I3
sg5
(dp325
g130
(dp326
g3
I2
sg9
g132
sg11
g133
ssg194
(dp327
g3
I4
sg9
g196
sg11
g197
ssg7
(dp328
g3
I12
sg9
g10
sg11
g12
ssVdjango-forum
p329
(dp330
g3
I3
sg9
S'http://code.google.com/p/django-forum/'
p331
sg11
S'http://django-forum.googlecode.com/svn/trunk/'
p332
ssg68
(dp333
g3
I2
sg9
g70
sg11
g71
ssssVaggregator
p334
(dp335
g3
I15
sg4
I2
sg5
(dp336
g119
(dp337
g3
I15
sg9
g121
sg11
g122
ssssVformat
p338
(dp339
g3
I2
sg4
I1
sg5
(dp340
Vdjango-localdates
p341
(dp342
g3
I2
sg9
S'http://code.google.com/p/django-localdates/'
p343
sg11
S'http://django-localdates.googlecode.com/svn/trunk/'
p344
ssssVpython
p345
(dp346
g3
I1735
sg4
I6
sg5
(dp347
g181
(dp348
g3
I71
sg9
g183
sg11
g184
ssg185
(dp349
g3
I3
sg9
g187
sg11
g188
ssg16
(dp350
g3
I19
sg9
g18
sg11
g19
ssg189
(dp351
g3
I149
sg9
g191
sg11
g192
ssVdjango-syncr
p352
(dp353
g3
I16
sg9
S'http://code.google.com/p/django-syncr/'
p354
sg11
S'http://django-syncr.googlecode.com/svn/trunk/'
p355
ssVdjango-reusableapps
p356
(dp357
g3
I4
sg9
S'http://code.google.com/p/django-reusableapps/'
p358
sg11
S'http://django-reusableapps.googlecode.com/svn/trunk/'
p359
ssg20
(dp360
g3
I3
sg9
g22
sg11
g23
ssg24
(dp361
g3
I41
sg9
g26
sg11
g27
ssg293
(dp362
g3
I21
sg9
g295
sg11
g296
ssVsnapboard
p363
(dp364
g3
I6
sg9
S'http://code.google.com/p/snapboard/'
p365
sg11
S'http://snapboard.googlecode.com/svn/trunk/'
p366
ssg28
(dp367
g3
I2
sg9
g30
sg11
g31
ssg32
(dp368
g3
I35
sg9
g34
sg11
g35
ssg36
(dp369
g3
I20
sg9
g38
sg11
g39
ssg221
(dp370
g3
I35
sg9
g223
sg11
g224
ssg268
(dp371
g3
I53
sg9
g270
sg11
g271
ssg40
(dp372
g3
I102
sg9
g42
sg11
g43
ssg199
(dp373
g3
I36
sg9
g201
sg11
g202
ssg203
(dp374
g3
I25
sg9
g205
sg11
g206
ssg207
(dp375
g3
I8
sg9
g209
sg11
g210
ssg254
(dp376
g3
I2
sg9
g256
sg11
g257
ssg211
(dp377
g3
I5
sg9
g213
sg11
g214
ssg68
(dp378
g3
I30
sg9
g70
sg11
g71
ssVdjango-treemenus
p379
(dp380
g3
I5
sg9
S'http://code.google.com/p/django-treemenus/'
p381
sg11
S'http://django-treemenus.googlecode.com/svn/trunk/'
p382
ssg48
(dp383
g3
I15
sg9
g50
sg11
g51
ssg52
(dp384
g3
I43
sg9
g54
sg11
g55
ssg329
(dp385
g3
I15
sg9
g331
sg11
g332
ssVdjango-sqlalchemy
p386
(dp387
g3
I4
sg9
S'http://code.google.com/p/django-sqlalchemy/'
p388
sg11
S'http://django-sqlalchemy.googlecode.com/svn/trunk/'
p389
ssg216
(dp390
g3
I10
sg9
g218
sg11
g219
ssVdjango-googleanalytics
p391
(dp392
g3
I2
sg9
S'http://code.google.com/p/django-googleanalytics/'
p393
sg11
S'http://django-googleanalytics.googlecode.com/svn/trunk/'
p394
ssVdjango-mssql
p395
(dp396
g3
I3
sg9
S'http://code.google.com/p/django-mssql/'
p397
sg11
S'http://django-mssql.googlecode.com/svn/trunk/'
p398
ssg60
(dp399
g3
I17
sg9
g62
sg11
g63
ssg64
(dp400
g3
I26
sg9
g66
sg11
g67
ssg126
(dp401
g3
I54
sg9
g128
sg11
g129
ssg225
(dp402
g3
I11
sg9
g227
sg11
g228
ssVfeedjack
p403
(dp404
g3
I2
sg9
S'http://code.google.com/p/feedjack/'
p405
sg11
S'http://feedjack.googlecode.com/svn/trunk/'
p406
ssg72
(dp407
g3
I39
sg9
g74
sg11
g75
ssg76
(dp408
g3
I26
sg9
g78
sg11
g79
ssg80
(dp409
g3
I6
sg9
g82
sg11
g83
ssg84
(dp410
g3
I13
sg9
g86
sg11
g87
ssg44
(dp411
g3
I15
sg9
g46
sg11
g47
ssg234
(dp412
g3
I32
sg9
g236
sg11
g237
ssVdjango-databasetemplateloader
p413
(dp414
g3
I8
sg9
S'http://code.google.com/p/django-databasetemplateloader/'
p415
sg11
S'http://django-databasetemplateloader.googlecode.com/svn/trunk/'
p416
ssVdjango-simpleaggregation
p417
(dp418
g3
I7
sg9
S'http://code.google.com/p/django-simpleaggregation/'
p419
sg11
S'http://django-simpleaggregation.googlecode.com/svn/trunk/'
p420
ssg88
(dp421
g3
I16
sg9
g90
sg11
g91
ssg92
(dp422
g3
I63
sg9
g94
sg11
g95
ssg301
(dp423
g3
I105
sg9
g303
sg11
g304
ssVdjango-geo
p424
(dp425
g3
I8
sg9
S'http://code.google.com/p/django-geo/'
p426
sg11
S'http://django-geo.googlecode.com/svn/trunk/'
p427
ssg137
(dp428
g3
I22
sg9
g139
sg11
g140
ssg148
(dp429
g3
I3
sg9
g150
sg11
g151
ssVdjango-mmo
p430
(dp431
g3
I12
sg9
S'http://code.google.com/p/django-mmo/'
p432
sg11
S'http://django-mmo.googlecode.com/svn/trunk/'
p433
ssg96
(dp434
g3
I109
sg9
g98
sg11
g99
ssg247
(dp435
g3
I194
sg9
g249
sg11
g250
ssg194
(dp436
g3
I14
sg9
g196
sg11
g197
ssg7
(dp437
g3
I30
sg9
g10
sg11
g12
ssg100
(dp438
g3
I41
sg9
g102
sg11
g103
ssg104
(dp439
g3
I43
sg9
g106
sg11
g107
ssg108
(dp440
g3
I24
sg9
g110
sg11
g111
ssg279
(dp441
g3
I12
sg9
g281
sg11
g282
ssssVdjango-apps
p442
(dp443
g3
I6
sg4
I2
sg5
(dp444
g261
(dp445
g3
I2
sg9
g263
sg11
g264
ssg413
(dp446
g3
I2
sg9
g415
sg11
g416
ssg417
(dp447
g3
I2
sg9
g419
sg11
g420
ssssVhowto
p448
(dp449
g3
I3
sg4
I1
sg5
(dp450
g16
(dp451
g3
I3
sg9
g18
sg11
g19
ssssVaggregation
p452
(dp453
g3
I3
sg4
I1
sg5
(dp454
g417
(dp455
g3
I3
sg9
g419
sg11
g420
ssssVauth
p456
(dp457
g3
I39
sg4
I3
sg5
(dp458
g96
(dp459
g3
I39
sg9
g98
sg11
g99
ssssVDjango
p460
(dp461
g3
I19
sg4
I3
sg5
(dp462
g28
(dp463
g3
I13
sg9
g30
sg11
g31
ssVdjango-search
p464
(dp465
g3
I6
sg9
S'http://code.google.com/p/django-search/'
p466
sg11
S'http://django-search.googlecode.com/svn/trunk/'
p467
ssssVframework
p468
(dp469
g3
I110
sg4
I4
sg5
(dp470
g36
(dp471
g3
I8
sg9
g38
sg11
g39
ssg211
(dp472
g3
I3
sg9
g213
sg11
g214
ssg76
(dp473
g3
I9
sg9
g78
sg11
g79
ssg247
(dp474
g3
I85
sg9
g249
sg11
g250
ssg221
(dp475
g3
I5
sg9
g223
sg11
g224
ssssVgame
p476
(dp477
g3
I14
sg4
I2
sg5
(dp478
g430
(dp479
g3
I14
sg9
g432
sg11
g433
ssssVmoo
p480
(dp481
g3
I7
sg4
I2
sg5
(dp482
g430
(dp483
g3
I7
sg9
g432
sg11
g433
ssssVFreeSoftware
p484
(dp485
g3
I2
sg4
I1
sg5
(dp486
g238
(dp487
g3
I2
sg9
g240
sg11
g241
ssssVgeo
p488
(dp489
g3
I5
sg4
I2
sg5
(dp490
g424
(dp491
g3
I5
sg9
g426
sg11
g427
ssssVtagging
p492
(dp493
g3
I181
sg4
I4
sg5
(dp494
g189
(dp495
g3
I181
sg9
g191
sg11
g192
ssssVcool
p496
(dp497
g3
I3
sg4
I1
sg5
(dp498
g203
(dp499
g3
I3
sg9
g205
sg11
g206
ssssVevolution
p500
(dp501
g3
I89
sg4
I4
sg5
(dp502
g216
(dp503
g3
I14
sg9
g218
sg11
g219
ssg301
(dp504
g3
I75
sg9
g303
sg11
g304
ssssVirc
p505
(dp506
g3
I2
sg4
I1
sg5
(dp507
Vdjangobot
p508
(dp509
g3
I2
sg9
S'http://code.google.com/p/djangobot/'
p510
sg11
S'http://djangobot.googlecode.com/svn/trunk/'
p511
ssssVpingback
p512
(dp513
g3
I6
sg4
I2
sg5
(dp514
g80
(dp515
g3
I6
sg9
g82
sg11
g83
ssssVupload
p516
(dp517
g3
I7
sg4
I2
sg5
(dp518
Vdjango-uploadutils
p519
(dp520
g3
I7
sg9
S'http://code.google.com/p/django-uploadutils/'
p521
sg11
S'http://django-uploadutils.googlecode.com/svn/trunk/'
p522
ssssVemail
p523
(dp524
g3
I33
sg4
I3
sg5
(dp525
Vdjango-mailadmin
p526
(dp527
g3
I2
sg9
S'http://code.google.com/p/django-mailadmin/'
p528
sg11
S'http://django-mailadmin.googlecode.com/svn/mailadmin/'
p529
ssg36
(dp530
g3
I31
sg9
g38
sg11
g39
ssssVdjango-app
p531
(dp532
g3
I4
sg4
I2
sg5
(dp533
g119
(dp534
g3
I2
sg9
g121
sg11
g122
ssg80
(dp535
g3
I2
sg9
g82
sg11
g83
ssssVsource
p536
(dp537
g3
I6
sg4
I2
sg5
(dp538
g108
(dp539
g3
I6
sg9
g110
sg11
g111
ssssVasync
p540
(dp541
g3
I12
sg4
I2
sg5
(dp542
g48
(dp543
g3
I12
sg9
g50
sg11
g51
ssssVfeeds
p544
(dp545
g3
I4
sg4
I2
sg5
(dp546
g7
(dp547
g3
I4
sg9
g10
sg11
g12
ssssVcms
p548
(dp549
g3
I32
sg4
I3
sg5
(dp550
Vdjango-pennypress
p551
(dp552
g3
I2
sg9
S'http://code.google.com/p/django-pennypress/'
p553
sg11
S'http://django-pennypress.googlecode.com/svn/trunk/'
p554
ssg207
(dp555
g3
I15
sg9
g209
sg11
g210
ssg68
(dp556
g3
I15
sg9
g70
sg11
g71
ssssVwiki
p557
(dp558
g3
I94
sg4
I4
sg5
(dp559
g229
(dp560
g3
I5
sg9
g231
sg11
g232
ssVdjango-wiki
p561
(dp562
g3
I2
sg9
S'http://code.google.com/p/django-wiki/'
p563
sg11
S'http://django-wiki.googlecode.com/svn/trunk/'
p564
ssg234
(dp565
g3
I48
sg9
g236
sg11
g237
ssg68
(dp566
g3
I39
sg9
g70
sg11
g71
ssssVdevelopment
p567
(dp568
g3
I221
sg4
I4
sg5
(dp569
g181
(dp570
g3
I9
sg9
g183
sg11
g184
ssg72
(dp571
g3
I8
sg9
g74
sg11
g75
ssg16
(dp572
g3
I7
sg9
g18
sg11
g19
ssg189
(dp573
g3
I45
sg9
g191
sg11
g192
ssg76
(dp574
g3
I6
sg9
g78
sg11
g79
ssg225
(dp575
g3
I2
sg9
g227
sg11
g228
ssg52
(dp576
g3
I23
sg9
g54
sg11
g55
ssg96
(dp577
g3
I13
sg9
g98
sg11
g99
ssg44
(dp578
g3
I5
sg9
g46
sg11
g47
ssg234
(dp579
g3
I6
sg9
g236
sg11
g237
ssg417
(dp580
g3
I2
sg9
g419
sg11
g420
ssg24
(dp581
g3
I15
sg9
g26
sg11
g27
ssg216
(dp582
g3
I9
sg9
g218
sg11
g219
ssg36
(dp583
g3
I5
sg9
g38
sg11
g39
ssg194
(dp584
g3
I3
sg9
g196
sg11
g197
ssg329
(dp585
g3
I2
sg9
g331
sg11
g332
ssg64
(dp586
g3
I8
sg9
g66
sg11
g67
ssg126
(dp587
g3
I15
sg9
g128
sg11
g129
ssg199
(dp588
g3
I5
sg9
g201
sg11
g202
ssg301
(dp589
g3
I33
sg9
g303
sg11
g304
ssssVcookies
p590
(dp591
g3
I8
sg4
I2
sg5
(dp592
g211
(dp593
g3
I8
sg9
g213
sg11
g214
ssssVgoogle
p594
(dp595
g3
I15
sg4
I2
sg5
(dp596
g84
(dp597
g3
I4
sg9
g86
sg11
g87
ssg430
(dp598
g3
I8
sg9
g432
sg11
g433
ssg352
(dp599
g3
I3
sg9
g354
sg11
g355
ssssVHTTP
p600
(dp601
g3
I7
sg4
I2
sg5
(dp602
g48
(dp603
g3
I7
sg9
g50
sg11
g51
ssssVportable
p604
(dp605
g3
I14
sg4
I2
sg5
(dp606
g84
(dp607
g3
I14
sg9
g86
sg11
g87
ssssVgaming
p608
(dp609
g3
I6
sg4
I2
sg5
(dp610
g430
(dp611
g3
I6
sg9
g432
sg11
g433
ssssVtwitter
p612
(dp613
g3
I17
sg4
I3
sg5
(dp614
g352
(dp615
g3
I17
sg9
g354
sg11
g355
ssssVlibrary
p616
(dp617
g3
I87
sg4
I4
sg5
(dp618
g181
(dp619
g3
I13
sg9
g183
sg11
g184
ssg379
(dp620
g3
I6
sg9
g381
sg11
g382
ssg189
(dp621
g3
I17
sg9
g191
sg11
g192
ssg52
(dp622
g3
I23
sg9
g54
sg11
g55
ssg417
(dp623
g3
I2
sg9
g419
sg11
g420
ssg32
(dp624
g3
I9
sg9
g34
sg11
g35
ssg413
(dp625
g3
I2
sg9
g415
sg11
g416
ssg100
(dp626
g3
I9
sg9
g102
sg11
g103
ssg221
(dp627
g3
I6
sg9
g223
sg11
g224
ssssVsocialnetworking
p628
(dp629
g3
I20
sg4
I3
sg5
(dp630
g84
(dp631
g3
I20
sg9
g86
sg11
g87
ssssVApplication
p632
(dp633
g3
I2
sg4
I1
sg5
(dp634
Vdjango-liveblogging
p635
(dp636
g3
I2
sg9
S'http://code.google.com/p/django-liveblogging/'
p637
sg11
S'http://django-liveblogging.googlecode.com/svn/trunk/'
p638
ssssVdesign
p639
(dp640
g3
I70
sg4
I4
sg5
(dp641
g40
(dp642
g3
I70
sg9
g42
sg11
g43
ssssVmigration
p643
(dp644
g3
I25
sg4
I3
sg5
(dp645
g301
(dp646
g3
I25
sg9
g303
sg11
g304
ssssVimages
p647
(dp648
g3
I12
sg4
I2
sg5
(dp649
g126
(dp650
g3
I12
sg9
g128
sg11
g129
ssssVcalendar
p651
(dp652
g3
I2
sg4
I1
sg5
(dp653
Vdjango-gencal
p654
(dp655
g3
I2
sg9
S'http://code.google.com/p/django-gencal/'
p656
sg11
S'http://django-gencal.googlecode.com/svn/trunk/'
p657
ssssVcomet
p658
(dp659
g3
I20
sg4
I3
sg5
(dp660
g48
(dp661
g3
I20
sg9
g50
sg11
g51
ssssVsnippets
p662
(dp663
g3
I38
sg4
I3
sg5
(dp664
g52
(dp665
g3
I19
sg9
g54
sg11
g55
ssg108
(dp666
g3
I19
sg9
g110
sg11
g111
ssssVebooks
p667
(dp668
g3
I2
sg4
I1
sg5
(dp669
Vgelman
p670
(dp671
g3
I2
sg9
S'http://code.google.com/p/gelman/'
p672
sg11
S'http://gelman.googlecode.com/svn/trunk/'
p673
ssssVtools
p674
(dp675
g3
I8
sg4
I2
sg5
(dp676
g108
(dp677
g3
I3
sg9
g110
sg11
g111
ssg60
(dp678
g3
I5
sg9
g62
sg11
g63
ssssVlocalization
p679
(dp680
g3
I5
sg4
I2
sg5
(dp681
g341
(dp682
g3
I5
sg9
g343
sg11
g344
ssssVintegration
p683
(dp684
g3
I4
sg4
I2
sg5
(dp685
g352
(dp686
g3
I4
sg9
g354
sg11
g355
ssssVcomments
p687
(dp688
g3
I73
sg4
I4
sg5
(dp689
g16
(dp690
g3
I31
sg9
g18
sg11
g19
ssg100
(dp691
g3
I42
sg9
g102
sg11
g103
ssssVlibraries
p692
(dp693
g3
I5
sg4
I2
sg5
(dp694
g185
(dp695
g3
I3
sg9
g187
sg11
g188
ssg417
(dp696
g3
I2
sg9
g419
sg11
g420
ssssVmud
p697
(dp698
g3
I3
sg4
I1
sg5
(dp699
g430
(dp700
g3
I3
sg9
g432
sg11
g433
ssssVtemplate
p701
(dp702
g3
I31
sg4
I3
sg5
(dp703
g52
(dp704
g3
I18
sg9
g54
sg11
g55
ssg413
(dp705
g3
I4
sg9
g415
sg11
g416
ssg268
(dp706
g3
I9
sg9
g270
sg11
g271
ssssVoffline
p707
(dp708
g3
I7
sg4
I2
sg5
(dp709
g60
(dp710
g3
I7
sg9
g62
sg11
g63
ssssVflickr
p711
(dp712
g3
I21
sg4
I3
sg5
(dp713
g352
(dp714
g3
I21
sg9
g354
sg11
g355
ssssVthumbnail
p715
(dp716
g3
I64
sg4
I4
sg5
(dp717
g268
(dp718
g3
I64
sg9
g270
sg11
g271
ssssVtags
p719
(dp720
g3
I86
sg4
I4
sg5
(dp721
g189
(dp722
g3
I86
sg9
g191
sg11
g192
ssssVjavascript
p723
(dp724
g3
I9
sg4
I2
sg5
(dp725
g254
(dp726
g3
I9
sg9
g256
sg11
g257
ssssVchart
p727
(dp728
g3
I4
sg4
I2
sg5
(dp729
g137
(dp730
g3
I4
sg9
g139
sg11
g140
ssssVmmo
p731
(dp732
g3
I13
sg4
I2
sg5
(dp733
g430
(dp734
g3
I13
sg9
g432
sg11
g433
ssssVorm
p735
(dp736
g3
I50
sg4
I3
sg5
(dp737
g199
(dp738
g3
I33
sg9
g201
sg11
g202
ssg279
(dp739
g3
I17
sg9
g281
sg11
g282
ssssVinterface
p740
(dp741
g3
I23
sg4
I3
sg5
(dp742
g92
(dp743
g3
I23
sg9
g94
sg11
g95
ssssVsecurity
p744
(dp745
g3
I11
sg4
I2
sg5
(dp746
g211
(dp747
g3
I11
sg9
g213
sg11
g214
ssssVsearch
p748
(dp749
g3
I64
sg4
I4
sg5
(dp750
g464
(dp751
g3
I5
sg9
g466
sg11
g467
ssg72
(dp752
g3
I59
sg9
g74
sg11
g75
ssssVpostgresql
p753
(dp754
g3
I10
sg4
I2
sg5
(dp755
g72
(dp756
g3
I10
sg9
g74
sg11
g75
ssssVsigned
p757
(dp758
g3
I2
sg4
I1
sg5
(dp759
g211
(dp760
g3
I2
sg9
g213
sg11
g214
ssssVforum
p761
(dp762
g3
I143
sg4
I4
sg5
(dp763
g234
(dp764
g3
I54
sg9
g236
sg11
g237
ssg68
(dp765
g3
I32
sg9
g70
sg11
g71
ssg329
(dp766
g3
I32
sg9
g331
sg11
g332
ssg363
(dp767
g3
I10
sg9
g365
sg11
g366
ssVnyxcite
p768
(dp769
g3
I4
sg9
S'http://code.google.com/p/nyxcite/'
p770
sg11
S'http://nyxcite.googlecode.com/svn/trunk/'
p771
ssg44
(dp772
g3
I11
sg9
g46
sg11
g47
ssssVpackage
p773
(dp774
g3
I2
sg4
I1
sg5
(dp775
g185
(dp776
g3
I2
sg9
g187
sg11
g188
ssssVadmin
p777
(dp778
g3
I12
sg4
I2
sg5
(dp779
g203
(dp780
g3
I12
sg9
g205
sg11
g206
ssssVprogramming
p781
(dp782
g3
I461
sg4
I5
sg5
(dp783
g181
(dp784
g3
I24
sg9
g183
sg11
g184
ssg185
(dp785
g3
I5
sg9
g187
sg11
g188
ssg16
(dp786
g3
I3
sg9
g18
sg11
g19
ssg189
(dp787
g3
I64
sg9
g191
sg11
g192
ssg20
(dp788
g3
I2
sg9
g22
sg11
g23
ssg24
(dp789
g3
I7
sg9
g26
sg11
g27
ssg293
(dp790
g3
I11
sg9
g295
sg11
g296
ssg32
(dp791
g3
I8
sg9
g34
sg11
g35
ssg36
(dp792
g3
I11
sg9
g38
sg11
g39
ssg268
(dp793
g3
I31
sg9
g270
sg11
g271
ssg199
(dp794
g3
I10
sg9
g201
sg11
g202
ssg203
(dp795
g3
I9
sg9
g205
sg11
g206
ssg207
(dp796
g3
I2
sg9
g209
sg11
g210
ssg254
(dp797
g3
I4
sg9
g256
sg11
g257
ssg211
(dp798
g3
I8
sg9
g213
sg11
g214
ssg221
(dp799
g3
I13
sg9
g223
sg11
g224
ssg379
(dp800
g3
I2
sg9
g381
sg11
g382
ssg48
(dp801
g3
I4
sg9
g50
sg11
g51
ssg52
(dp802
g3
I10
sg9
g54
sg11
g55
ssg391
(dp803
g3
I2
sg9
g393
sg11
g394
ssg395
(dp804
g3
I2
sg9
g397
sg11
g398
ssg126
(dp805
g3
I23
sg9
g128
sg11
g129
ssg225
(dp806
g3
I5
sg9
g227
sg11
g228
ssg229
(dp807
g3
I2
sg9
g231
sg11
g232
ssg72
(dp808
g3
I10
sg9
g74
sg11
g75
ssg44
(dp809
g3
I4
sg9
g46
sg11
g47
ssg234
(dp810
g3
I20
sg9
g236
sg11
g237
ssg413
(dp811
g3
I3
sg9
g415
sg11
g416
ssg417
(dp812
g3
I3
sg9
g419
sg11
g420
ssg88
(dp813
g3
I9
sg9
g90
sg11
g91
ssg92
(dp814
g3
I31
sg9
g94
sg11
g95
ssg301
(dp815
g3
I17
sg9
g303
sg11
g304
ssg96
(dp816
g3
I18
sg9
g98
sg11
g99
ssg247
(dp817
g3
I31
sg9
g249
sg11
g250
ssg194
(dp818
g3
I5
sg9
g196
sg11
g197
ssg7
(dp819
g3
I19
sg9
g10
sg11
g12
ssg100
(dp820
g3
I18
sg9
g102
sg11
g103
ssg104
(dp821
g3
I9
sg9
g106
sg11
g107
ssg108
(dp822
g3
I2
sg9
g110
sg11
g111
ssssVajax
p823
(dp824
g3
I15
sg4
I2
sg5
(dp825
g48
(dp826
g3
I13
sg9
g50
sg11
g51
ssg254
(dp827
g3
I2
sg9
g256
sg11
g257
ssssVsyndication
p828
(dp829
g3
I4
sg4
I2
sg5
(dp830
g7
(dp831
g3
I4
sg9
g10
sg11
g12
ssssVqueue
p832
(dp833
g3
I47
sg4
I3
sg5
(dp834
g24
(dp835
g3
I47
sg9
g26
sg11
g27
ssssVextension
p836
(dp837
g3
I2
sg4
I1
sg5
(dp838
g261
(dp839
g3
I2
sg9
g263
sg11
g264
ssssVgames
p840
(dp841
g3
I12
sg4
I2
sg5
(dp842
g430
(dp843
g3
I12
sg9
g432
sg11
g433
ssssVmenu
p844
(dp845
g3
I12
sg4
I2
sg5
(dp846
g379
(dp847
g3
I12
sg9
g381
sg11
g382
ssssVsocial
p848
(dp849
g3
I28
sg4
I3
sg5
(dp850
g84
(dp851
g3
I18
sg9
g86
sg11
g87
ssg185
(dp852
g3
I10
sg9
g187
sg11
g188
ssssVmessaging
p853
(dp854
g3
I34
sg4
I3
sg5
(dp855
Vdjango-pm
p856
(dp857
g3
I2
sg9
S'http://code.google.com/p/django-pm/'
p858
sg11
S'http://django-pm.googlecode.com/svn/trunk/'
p859
ssg24
(dp860
g3
I32
sg9
g26
sg11
g27
ssssVnavigation
p861
(dp862
g3
I4
sg4
I2
sg5
(dp863
g379
(dp864
g3
I4
sg9
g381
sg11
g382
ssssVsoftware
p865
(dp866
g3
I20
sg4
I3
sg5
(dp867
g119
(dp868
g3
I2
sg9
g121
sg11
g122
ssg108
(dp869
g3
I5
sg9
g110
sg11
g111
ssg203
(dp870
g3
I10
sg9
g205
sg11
g206
ssg44
(dp871
g3
I3
sg9
g46
sg11
g47
ssssVcomment
p872
(dp873
g3
I29
sg4
I3
sg5
(dp874
g16
(dp875
g3
I8
sg9
g18
sg11
g19
ssg100
(dp876
g3
I21
sg9
g102
sg11
g103
ssssVgeolocation
p877
(dp878
g3
I11
sg4
I2
sg5
(dp879
g424
(dp880
g3
I11
sg9
g426
sg11
g427
ssssVimage
p881
(dp882
g3
I61
sg4
I3
sg5
(dp883
g126
(dp884
g3
I17
sg9
g128
sg11
g129
ssg268
(dp885
g3
I40
sg9
g270
sg11
g271
ssg130
(dp886
g3
I4
sg9
g132
sg11
g133
ssssVcommunity
p887
(dp888
g3
I18
sg4
I3
sg5
(dp889
g234
(dp890
g3
I18
sg9
g236
sg11
g237
ssssVcocoa
p891
(dp892
g3
I2
sg4
I1
sg5
(dp893
g60
(dp894
g3
I2
sg9
g62
sg11
g63
ssssVapi
p895
(dp896
g3
I77
sg4
I4
sg5
(dp897
g352
(dp898
g3
I26
sg9
g354
sg11
g355
ssg92
(dp899
g3
I51
sg9
g94
sg11
g95
ssssVvisualization
p900
(dp901
g3
I7
sg4
I2
sg5
(dp902
g137
(dp903
g3
I7
sg9
g139
sg11
g140
ssssVregistration
p904
(dp905
g3
I109
sg4
I4
sg5
(dp906
g96
(dp907
g3
I109
sg9
g98
sg11
g99
ssssVliveblogging
p908
(dp909
g3
I2
sg4
I1
sg5
(dp910
g635
(dp911
g3
I2
sg9
g637
sg11
g638
ssssVforums
p912
(dp913
g3
I5
sg4
I2
sg5
(dp914
g329
(dp915
g3
I5
sg9
g331
sg11
g332
ssssVecommerce
p916
(dp917
g3
I227
sg4
I4
sg5
(dp918
g247
(dp919
g3
I227
sg9
g249
sg11
g250
ssssVforms
p920
(dp921
g3
I11
sg4
I2
sg5
(dp922
g293
(dp923
g3
I11
sg9
g295
sg11
g296
ssssVmanagement
p924
(dp925
g3
I6
sg4
I2
sg5
(dp926
g261
(dp927
g3
I2
sg9
g263
sg11
g264
ssg64
(dp928
g3
I4
sg9
g66
sg11
g67
ssssVpublishing
p929
(dp930
g3
I4
sg4
I2
sg5
(dp931
g130
(dp932
g3
I2
sg9
g132
sg11
g133
ssg238
(dp933
g3
I2
sg9
g240
sg11
g241
ssssVspam
p934
(dp935
g3
I6
sg4
I2
sg5
(dp936
g100
(dp937
g3
I6
sg9
g102
sg11
g103
ssssVapps
p938
(dp939
g3
I20
sg4
I3
sg5
(dp940
g16
(dp941
g3
I6
sg9
g18
sg11
g19
ssg148
(dp942
g3
I2
sg9
g150
sg11
g151
ssg76
(dp943
g3
I4
sg9
g78
sg11
g79
ssg329
(dp944
g3
I2
sg9
g331
sg11
g332
ssg293
(dp945
g3
I4
sg9
g295
sg11
g296
ssg108
(dp946
g3
I2
sg9
g110
sg11
g111
ssssVhttpd
p947
(dp948
g3
I4
sg4
I2
sg5
(dp949
g48
(dp950
g3
I4
sg9
g50
sg11
g51
ssssg56
(dp951
g3
I2
sg4
I1
sg5
(dp952
g56
(dp953
g3
I2
sg9
g58
sg11
g59
ssssVjson
p954
(dp955
g3
I16
sg4
I3
sg5
(dp956
g92
(dp957
g3
I16
sg9
g94
sg11
g95
ssssVakismet
p958
(dp959
g3
I7
sg4
I2
sg5
(dp960
g100
(dp961
g3
I7
sg9
g102
sg11
g103
ssssVstore
p962
(dp963
g3
I106
sg4
I4
sg5
(dp964
g247
(dp965
g3
I106
sg9
g249
sg11
g250
ssssVboard
p966
(dp967
g3
I7
sg4
I2
sg5
(dp968
g234
(dp969
g3
I7
sg9
g236
sg11
g237
ssssVengine
p970
(dp971
g3
I4
sg4
I2
sg5
(dp972
g238
(dp973
g3
I4
sg9
g240
sg11
g241
ssssVfulltext
p974
(dp975
g3
I29
sg4
I3
sg5
(dp976
g72
(dp977
g3
I29
sg9
g74
sg11
g75
ssssVmptt
p978
(dp979
g3
I29
sg4
I3
sg5
(dp980
g104
(dp981
g3
I29
sg9
g106
sg11
g107
ssssVshopping
p982
(dp983
g3
I89
sg4
I4
sg5
(dp984
g247
(dp985
g3
I89
sg9
g249
sg11
g250
ssssVform
p986
(dp987
g3
I18
sg4
I3
sg5
(dp988
g293
(dp989
g3
I18
sg9
g295
sg11
g296
ssssVyahoo
p990
(dp991
g3
I2
sg4
I1
sg5
(dp992
g254
(dp993
g3
I2
sg9
g256
sg11
g257
ssssVprofile
p994
(dp995
g3
I14
sg4
I2
sg5
(dp996
g194
(dp997
g3
I12
sg9
g196
sg11
g197
ssVdjango-profile-images
p998
(dp999
g3
I2
sg9
S'http://code.google.com/p/django-profile-images/'
p1000
sg11
S'http://django-profile-images.googlecode.com/svn/trunk/'
p1001
ssssVprofiles
p1002
(dp1003
g3
I8
sg4
I2
sg5
(dp1004
g194
(dp1005
g3
I8
sg9
g196
sg11
g197
ssssVatom
p1006
(dp1007
g3
I61
sg4
I3
sg5
(dp1008
g7
(dp1009
g3
I61
sg9
g10
sg11
g12
ssssVi18n
p1010
(dp1011
g3
I121
sg4
I4
sg5
(dp1012
g32
(dp1013
g3
I60
sg9
g34
sg11
g35
ssg20
(dp1014
g3
I10
sg9
g22
sg11
g23
ssg88
(dp1015
g3
I34
sg9
g90
sg11
g91
ssg225
(dp1016
g3
I17
sg9
g227
sg11
g228
ssssVlogging
p1017
(dp1018
g3
I36
sg4
I3
sg5
(dp1019
g221
(dp1020
g3
I36
sg9
g223
sg11
g224
ssssVtranslation
p1021
(dp1022
g3
I49
sg4
I3
sg5
(dp1023
g32
(dp1024
g3
I49
sg9
g34
sg11
g35
ssssVrss
p1025
(dp1026
g3
I3
sg4
I1
sg5
(dp1027
g403
(dp1028
g3
I3
sg9
g405
sg11
g406
ssssVthumbnails
p1029
(dp1030
g3
I10
sg4
I2
sg5
(dp1031
g268
(dp1032
g3
I10
sg9
g270
sg11
g271
ssssVrobots.txt
p1033
(dp1034
g3
I8
sg4
I2
sg5
(dp1035
g28
(dp1036
g3
I8
sg9
g30
sg11
g31
ssssVmiddleware
p1037
(dp1038
g3
I13
sg4
I2
sg5
(dp1039
g221
(dp1040
g3
I13
sg9
g223
sg11
g224
ssssVwork
p1041
(dp1042
g3
I2
sg4
I1
sg5
(dp1043
g363
(dp1044
g3
I2
sg9
g365
sg11
g366
ssssVtree
p1045
(dp1046
g3
I49
sg4
I3
sg5
(dp1047
g379
(dp1048
g3
I8
sg9
g381
sg11
g382
ssg104
(dp1049
g3
I41
sg9
g106
sg11
g107
ssssVtypography
p1050
(dp1051
g3
I191
sg4
I4
sg5
(dp1052
g40
(dp1053
g3
I191
sg9
g42
sg11
g43
ssssVLibrary
p1054
(dp1055
g3
I8
sg4
I2
sg5
(dp1056
g72
(dp1057
g3
I8
sg9
g74
sg11
g75
ssssVframeworks
p1058
(dp1059
g3
I4
sg4
I2
sg5
(dp1060
g211
(dp1061
g3
I4
sg9
g213
sg11
g214
ssssVsetuptools
p1062
(dp1063
g3
I3
sg4
I1
sg5
(dp1064
g356
(dp1065
g3
I3
sg9
g358
sg11
g359
ssssVgne
p1066
(dp1067
g3
I14
sg4
I2
sg5
(dp1068
g430
(dp1069
g3
I14
sg9
g432
sg11
g433
ssssVschema
p1070
(dp1071
g3
I98
sg4
I4
sg5
(dp1072
g216
(dp1073
g3
I14
sg9
g218
sg11
g219
ssg301
(dp1074
g3
I84
sg9
g303
sg11
g304
ssssVyui
p1075
(dp1076
g3
I21
sg4
I3
sg5
(dp1077
g254
(dp1078
g3
I21
sg9
g256
sg11
g257
ssssVdebugging
p1079
(dp1080
g3
I6
sg4
I2
sg5
(dp1081
g221
(dp1082
g3
I6
sg9
g223
sg11
g224
ssssVpil
p1083
(dp1084
g3
I25
sg4
I3
sg5
(dp1085
g268
(dp1086
g3
I25
sg9
g270
sg11
g271
ssssViphone
p1087
(dp1088
g3
I38
sg4
I3
sg5
(dp1089
g203
(dp1090
g3
I38
sg9
g205
sg11
g206
ssssVsqlalchemy
p1091
(dp1092
g3
I50
sg4
I3
sg5
(dp1093
g199
(dp1094
g3
I43
sg9
g201
sg11
g202
ssg386
(dp1095
g3
I7
sg9
g388
sg11
g389
ssssVdel.icio.us
p1096
(dp1097
g3
I18
sg4
I3
sg5
(dp1098
g352
(dp1099
g3
I18
sg9
g354
sg11
g355
ssssVopenSource
p1100
(dp1101
g3
I4
sg4
I2
sg5
(dp1102
g64
(dp1103
g3
I4
sg9
g66
sg11
g67
ssssVwebdev
p1104
(dp1105
g3
I374
sg4
I5
sg5
(dp1106
g185
(dp1107
g3
I4
sg9
g187
sg11
g188
ssg189
(dp1108
g3
I49
sg9
g191
sg11
g192
ssg20
(dp1109
g3
I2
sg9
g22
sg11
g23
ssg24
(dp1110
g3
I13
sg9
g26
sg11
g27
ssg293
(dp1111
g3
I8
sg9
g295
sg11
g296
ssg28
(dp1112
g3
I2
sg9
g30
sg11
g31
ssg211
(dp1113
g3
I7
sg9
g213
sg11
g214
ssg40
(dp1114
g3
I57
sg9
g42
sg11
g43
ssg199
(dp1115
g3
I9
sg9
g201
sg11
g202
ssg203
(dp1116
g3
I12
sg9
g205
sg11
g206
ssg254
(dp1117
g3
I9
sg9
g256
sg11
g257
ssg68
(dp1118
g3
I5
sg9
g70
sg11
g71
ssg329
(dp1119
g3
I5
sg9
g331
sg11
g332
ssg216
(dp1120
g3
I4
sg9
g218
sg11
g219
ssg64
(dp1121
g3
I16
sg9
g66
sg11
g67
ssg221
(dp1122
g3
I7
sg9
g223
sg11
g224
ssg225
(dp1123
g3
I2
sg9
g227
sg11
g228
ssg247
(dp1124
g3
I47
sg9
g249
sg11
g250
ssg76
(dp1125
g3
I3
sg9
g78
sg11
g79
ssg234
(dp1126
g3
I16
sg9
g236
sg11
g237
ssg301
(dp1127
g3
I29
sg9
g303
sg11
g304
ssg126
(dp1128
g3
I20
sg9
g128
sg11
g129
ssg96
(dp1129
g3
I39
sg9
g98
sg11
g99
ssg104
(dp1130
g3
I9
sg9
g106
sg11
g107
ssssVgoogleanalytics
p1131
(dp1132
g3
I2
sg4
I1
sg5
(dp1133
g391
(dp1134
g3
I2
sg9
g393
sg11
g394
ssssVsocialgraph
p1135
(dp1136
g3
I5
sg4
I2
sg5
(dp1137
g84
(dp1138
g3
I5
sg9
g86
sg11
g87
ssssVmssql
p1139
(dp1140
g3
I2
sg4
I1
sg5
(dp1141
g395
(dp1142
g3
I2
sg9
g397
sg11
g398
ssssVPython
p1143
(dp1144
g3
I15
sg4
I2
sg5
(dp1145
g119
(dp1146
g3
I8
sg9
g121
sg11
g122
ssg238
(dp1147
g3
I7
sg9
g240
sg11
g241
ssssVmashup
p1148
(dp1149
g3
I7
sg4
I2
sg5
(dp1150
g352
(dp1151
g3
I7
sg9
g354
sg11
g355
ssssVstorage
p1152
(dp1153
g3
I2
sg4
I1
sg5
(dp1154
g519
(dp1155
g3
I2
sg9
g521
sg11
g522
ssssVgettext
p1156
(dp1157
g3
I26
sg4
I3
sg5
(dp1158
g32
(dp1159
g3
I26
sg9
g34
sg11
g35
ssssVintrospection
p1160
(dp1161
g3
I3
sg4
I1
sg5
(dp1162
g216
(dp1163
g3
I3
sg9
g218
sg11
g219
ssssVapplication
p1164
(dp1165
g3
I198
sg4
I4
sg5
(dp1166
g181
(dp1167
g3
I10
sg9
g183
sg11
g184
ssg379
(dp1168
g3
I3
sg9
g381
sg11
g382
ssg185
(dp1169
g3
I2
sg9
g187
sg11
g188
ssg16
(dp1170
g3
I13
sg9
g18
sg11
g19
ssg189
(dp1171
g3
I15
sg9
g191
sg11
g192
ssg44
(dp1172
g3
I7
sg9
g46
sg11
g47
ssg341
(dp1173
g3
I2
sg9
g343
sg11
g344
ssg207
(dp1174
g3
I5
sg9
g209
sg11
g210
ssg68
(dp1175
g3
I12
sg9
g70
sg11
g71
ssg363
(dp1176
g3
I2
sg9
g365
sg11
g366
ssg293
(dp1177
g3
I7
sg9
g295
sg11
g296
ssg238
(dp1178
g3
I8
sg9
g240
sg11
g241
ssg36
(dp1179
g3
I6
sg9
g38
sg11
g39
ssg100
(dp1180
g3
I19
sg9
g102
sg11
g103
ssg88
(dp1181
g3
I11
sg9
g90
sg11
g91
ssg119
(dp1182
g3
I6
sg9
g121
sg11
g122
ssg64
(dp1183
g3
I20
sg9
g66
sg11
g67
ssg126
(dp1184
g3
I31
sg9
g128
sg11
g129
ssg194
(dp1185
g3
I4
sg9
g196
sg11
g197
ssg268
(dp1186
g3
I15
sg9
g270
sg11
g271
ssssVauthentication
p1187
(dp1188
g3
I112
sg4
I4
sg5
(dp1189
g181
(dp1190
g3
I43
sg9
g183
sg11
g184
ssg96
(dp1191
g3
I69
sg9
g98
sg11
g99
ssssVperformance
p1192
(dp1193
g3
I13
sg4
I2
sg5
(dp1194
g279
(dp1195
g3
I13
sg9
g281
sg11
g282
ssssVevents
p1196
(dp1197
g3
I3
sg4
I1
sg5
(dp1198
g48
(dp1199
g3
I3
sg9
g50
sg11
g51
ssssVcss
p1200
(dp1201
g3
I104
sg4
I4
sg5
(dp1202
g40
(dp1203
g3
I102
sg9
g42
sg11
g43
ssg254
(dp1204
g3
I2
sg9
g256
sg11
g257
ssssVtemplates
p1205
(dp1206
g3
I114
sg4
I4
sg5
(dp1207
g40
(dp1208
g3
I50
sg9
g42
sg11
g43
ssg52
(dp1209
g3
I47
sg9
g54
sg11
g55
ssg413
(dp1210
g3
I3
sg9
g415
sg11
g416
ssg254
(dp1211
g3
I14
sg9
g256
sg11
g257
ssssVopenid
p1212
(dp1213
g3
I115
sg4
I4
sg5
(dp1214
g181
(dp1215
g3
I115
sg9
g183
sg11
g184
ssssVdb
p1216
(dp1217
g3
I11
sg4
I2
sg5
(dp1218
g216
(dp1219
g3
I8
sg9
g218
sg11
g219
ssg225
(dp1220
g3
I3
sg9
g227
sg11
g228
ssssVmultilingual
p1221
(dp1222
g3
I30
sg4
I3
sg5
(dp1223
g88
(dp1224
g3
I22
sg9
g90
sg11
g91
ssg225
(dp1225
g3
I8
sg9
g227
sg11
g228
ssssVutilities
p1226
(dp1227
g3
I27
sg4
I3
sg5
(dp1228
g52
(dp1229
g3
I25
sg9
g54
sg11
g55
ssg261
(dp1230
g3
I2
sg9
g263
sg11
g264
ssssVmac
p1231
(dp1232
g3
I11
sg4
I2
sg5
(dp1233
g60
(dp1234
g3
I11
sg9
g62
sg11
g63
ssssVrosetta
p1235
(dp1236
g3
I23
sg4
I3
sg5
(dp1237
g32
(dp1238
g3
I23
sg9
g34
sg11
g35
ssssVuser
p1239
(dp1240
g3
I9
sg4
I2
sg5
(dp1241
g194
(dp1242
g3
I9
sg9
g196
sg11
g197
ssssVsql
p1243
(dp1244
g3
I76
sg4
I4
sg5
(dp1245
g301
(dp1246
g3
I50
sg9
g303
sg11
g304
ssg104
(dp1247
g3
I26
sg9
g106
sg11
g107
ssssVdate
p1248
(dp1249
g3
I5
sg4
I2
sg5
(dp1250
g341
(dp1251
g3
I5
sg9
g343
sg11
g344
ssssVcommands
p1252
(dp1253
g3
I2
sg4
I1
sg5
(dp1254
g261
(dp1255
g3
I2
sg9
g263
sg11
g264
ssssVfriends
p1256
(dp1257
g3
I7
sg4
I2
sg5
(dp1258
g185
(dp1259
g3
I7
sg9
g187
sg11
g188
ssssVgallery
p1260
(dp1261
g3
I100
sg4
I4
sg5
(dp1262
g64
(dp1263
g3
I22
sg9
g66
sg11
g67
ssg126
(dp1264
g3
I73
sg9
g128
sg11
g129
ssg130
(dp1265
g3
I5
sg9
g132
sg11
g133
ssssVidentity
p1266
(dp1267
g3
I8
sg4
I2
sg5
(dp1268
g84
(dp1269
g3
I8
sg9
g86
sg11
g87
ssssVsvn
p1270
(dp1271
g3
I2
sg4
I1
sg5
(dp1272
g229
(dp1273
g3
I2
sg9
g231
sg11
g232
ssssVGoogle
p1274
(dp1275
g3
I8
sg4
I2
sg5
(dp1276
g60
(dp1277
g3
I8
sg9
g62
sg11
g63
ssssVsphinx
p1278
(dp1279
g3
I44
sg4
I3
sg5
(dp1280
g72
(dp1281
g3
I44
sg9
g74
sg11
g75
ssssVdatabase
p1282
(dp1283
g3
I230
sg4
I4
sg5
(dp1284
g301
(dp1285
g3
I123
sg9
g303
sg11
g304
ssg386
(dp1286
g3
I3
sg9
g388
sg11
g389
ssg216
(dp1287
g3
I16
sg9
g218
sg11
g219
ssg413
(dp1288
g3
I3
sg9
g415
sg11
g416
ssg104
(dp1289
g3
I35
sg9
g106
sg11
g107
ssg88
(dp1290
g3
I4
sg9
g90
sg11
g91
ssg199
(dp1291
g3
I28
sg9
g201
sg11
g202
ssg279
(dp1292
g3
I15
sg9
g281
sg11
g282
ssg395
(dp1293
g3
I3
sg9
g397
sg11
g398
ssssVmobile
p1294
(dp1295
g3
I22
sg4
I3
sg5
(dp1296
g203
(dp1297
g3
I22
sg9
g205
sg11
g206
ssssVegg
p1298
(dp1299
g3
I2
sg4
I1
sg5
(dp1300
g356
(dp1301
g3
I2
sg9
g358
sg11
g359
ssssVdocumentation
p1302
(dp1303
g3
I4
sg4
I2
sg5
(dp1304
Vdjango-docs
p1305
(dp1306
g3
I4
sg9
S'http://code.google.com/p/django-docs/'
p1307
sg11
S'http://django-docs.googlecode.com/svn/trunk/'
p1308
ssssVyoutube
p1309
(dp1310
g3
I17
sg4
I3
sg5
(dp1311
g352
(dp1312
g3
I17
sg9
g354
sg11
g355
ssssVdjango
p1313
(dp1314
g3
I3720
sg4
I6
sg5
(dp1315
g181
(dp1316
g3
I125
sg9
g183
sg11
g184
ssg185
(dp1317
g3
I17
sg9
g187
sg11
g188
ssg16
(dp1318
g3
I50
sg9
g18
sg11
g19
ssg189
(dp1319
g3
I300
sg9
g191
sg11
g192
ssg352
(dp1320
g3
I36
sg9
g354
sg11
g355
ssg356
(dp1321
g3
I18
sg9
g358
sg11
g359
ssg20
(dp1322
g3
I16
sg9
g22
sg11
g23
ssg24
(dp1323
g3
I74
sg9
g26
sg11
g27
ssg293
(dp1324
g3
I53
sg9
g295
sg11
g296
ssg363
(dp1325
g3
I12
sg9
g365
sg11
g366
ssg119
(dp1326
g3
I42
sg9
g121
sg11
g122
ssg32
(dp1327
g3
I85
sg9
g34
sg11
g35
ssg36
(dp1328
g3
I38
sg9
g38
sg11
g39
ssg221
(dp1329
g3
I53
sg9
g223
sg11
g224
ssg268
(dp1330
g3
I102
sg9
g270
sg11
g271
ssg40
(dp1331
g3
I181
sg9
g42
sg11
g43
ssg199
(dp1332
g3
I50
sg9
g201
sg11
g202
ssg203
(dp1333
g3
I44
sg9
g205
sg11
g206
ssg207
(dp1334
g3
I22
sg9
g209
sg11
g210
ssg254
(dp1335
g3
I24
sg9
g256
sg11
g257
ssg211
(dp1336
g3
I19
sg9
g213
sg11
g214
ssg68
(dp1337
g3
I54
sg9
g70
sg11
g71
ssg379
(dp1338
g3
I19
sg9
g381
sg11
g382
ssg48
(dp1339
g3
I32
sg9
g50
sg11
g51
ssg52
(dp1340
g3
I112
sg9
g54
sg11
g55
ssg329
(dp1341
g3
I46
sg9
g331
sg11
g332
ssg386
(dp1342
g3
I6
sg9
g388
sg11
g389
ssg56
(dp1343
g3
I9
sg9
g58
sg11
g59
ssg216
(dp1344
g3
I33
sg9
g218
sg11
g219
ssg856
(dp1345
g3
I3
sg9
g858
sg11
g859
ssg391
(dp1346
g3
I4
sg9
g393
sg11
g394
ssg551
(dp1347
g3
I3
sg9
g553
sg11
g554
ssg395
(dp1348
g3
I4
sg9
g397
sg11
g398
ssg60
(dp1349
g3
I28
sg9
g62
sg11
g63
ssg654
(dp1350
g3
I5
sg9
g656
sg11
g657
ssg561
(dp1351
g3
I2
sg9
g563
sg11
g564
ssg64
(dp1352
g3
I63
sg9
g66
sg11
g67
ssg126
(dp1353
g3
I128
sg9
g128
sg11
g129
ssg998
(dp1354
g3
I2
sg9
g1000
sg11
g1001
ssg225
(dp1355
g3
I25
sg9
g227
sg11
g228
ssg261
(dp1356
g3
I11
sg9
g263
sg11
g264
ssg519
(dp1357
g3
I11
sg9
g521
sg11
g522
ssg403
(dp1358
g3
I4
sg9
g405
sg11
g406
ssg72
(dp1359
g3
I81
sg9
g74
sg11
g75
ssg76
(dp1360
g3
I74
sg9
g78
sg11
g79
ssg80
(dp1361
g3
I15
sg9
g82
sg11
g83
ssg84
(dp1362
g3
I43
sg9
g86
sg11
g87
ssg44
(dp1363
g3
I28
sg9
g46
sg11
g47
ssg234
(dp1364
g3
I80
sg9
g236
sg11
g237
ssg238
(dp1365
g3
I19
sg9
g240
sg11
g241
ssg508
(dp1366
g3
I2
sg9
g510
sg11
g511
ssg413
(dp1367
g3
I11
sg9
g415
sg11
g416
ssg417
(dp1368
g3
I13
sg9
g419
sg11
g420
ssg88
(dp1369
g3
I50
sg9
g90
sg11
g91
ssg92
(dp1370
g3
I131
sg9
g94
sg11
g95
ssg1305
(dp1371
g3
I4
sg9
g1307
sg11
g1308
ssg768
(dp1372
g3
I6
sg9
g770
sg11
g771
ssg301
(dp1373
g3
I209
sg9
g303
sg11
g304
ssg635
(dp1374
g3
I5
sg9
g637
sg11
g638
ssg526
(dp1375
g3
I3
sg9
g528
sg11
g529
ssg424
(dp1376
g3
I17
sg9
g426
sg11
g427
ssg137
(dp1377
g3
I27
sg9
g139
sg11
g140
ssg148
(dp1378
g3
I5
sg9
g150
sg11
g151
ssg430
(dp1379
g3
I23
sg9
g432
sg11
g433
ssg341
(dp1380
g3
I8
sg9
g343
sg11
g344
ssg96
(dp1381
g3
I242
sg9
g98
sg11
g99
ssVdjango-undo
p1382
(dp1383
g3
I4
sg9
S'http://code.google.com/p/django-undo/'
p1384
sg11
S'http://django-undo.googlecode.com/svn/trunk/'
p1385
ssg247
(dp1386
g3
I296
sg9
g249
sg11
g250
ssg670
(dp1387
g3
I2
sg9
g672
sg11
g673
ssg194
(dp1388
g3
I35
sg9
g196
sg11
g197
ssg7
(dp1389
g3
I69
sg9
g10
sg11
g12
ssg100
(dp1390
g3
I84
sg9
g102
sg11
g103
ssg104
(dp1391
g3
I86
sg9
g106
sg11
g107
ssg130
(dp1392
g3
I6
sg9
g132
sg11
g133
ssg108
(dp1393
g3
I40
sg9
g110
sg11
g111
ssg229
(dp1394
g3
I6
sg9
g231
sg11
g232
ssg279
(dp1395
g3
I27
sg9
g281
sg11
g282
ssVdjango-messaging
p1396
(dp1397
g3
I4
sg9
S'http://code.google.com/p/django-messaging/'
p1398
sg11
S'http://django-messaging.googlecode.com/svn/trunk/'
p1399
ssssVgraphs
p1400
(dp1401
g3
I7
sg4
I2
sg5
(dp1402
g137
(dp1403
g3
I7
sg9
g139
sg11
g140
ssssVcontact
p1404
(dp1405
g3
I23
sg4
I3
sg5
(dp1406
g293
(dp1407
g3
I23
sg9
g295
sg11
g296
ssssValgorithms
p1408
(dp1409
g3
I26
sg4
I3
sg5
(dp1410
g104
(dp1411
g3
I26
sg9
g106
sg11
g107
ssssVcaching
p1412
(dp1413
g3
I7
sg4
I2
sg5
(dp1414
g279
(dp1415
g3
I7
sg9
g281
sg11
g282
ssssVvoting
p1416
(dp1417
g3
I43
sg4
I3
sg5
(dp1418
g76
(dp1419
g3
I43
sg9
g78
sg11
g79
ssssVTools
p1420
(dp1421
g3
I2
sg4
I1
sg5
(dp1422
g137
(dp1423
g3
I2
sg9
g139
sg11
g140
ssssVdiscussion
p1424
(dp1425
g3
I14
sg4
I2
sg5
(dp1426
g44
(dp1427
g3
I14
sg9
g46
sg11
g47
ssss.